target datalayout = "e-m:e-p270:32:32-p271:32:32-p272:64:64-i64:64-i128:128-f80:128-n8:16:32:64-S128"
target triple = "x86_64-pc-linux-gnu"

%struct.cache_tree = type { i32, %struct.object_id, i32, i32, ptr }
%struct.object_id = type { [32 x i8], i32 }
%struct.cache_tree_sub = type { ptr, i32, i32, i32, [0 x i8] }

; Function Attrs: nounwind uwtable
define dso_local void @cache_tree_free(ptr noundef %0) #0 {
  %2 = alloca ptr, align 8
  %3 = alloca i32, align 4
  %4 = alloca ptr, align 8
  %5 = alloca i32, align 4
  store ptr %0, ptr %2, align 8, !tbaa !14
  call void @llvm.lifetime.start.p0(i64 4, ptr %3) #10
  call void @llvm.lifetime.start.p0(i64 8, ptr %4) #10
  %6 = load ptr, ptr %2, align 8, !tbaa !14
  %7 = load ptr, ptr %6, align 8, !tbaa !4
  store ptr %7, ptr %4, align 8, !tbaa !4
  %8 = load ptr, ptr %4, align 8, !tbaa !4
  %9 = icmp ne ptr %8, null
  br i1 %9, label %11, label %10

10:                                               ; preds = %1
  store i32 1, ptr %5, align 4
  br label %53

11:                                               ; preds = %1
  store i32 0, ptr %3, align 4, !tbaa !16
  br label %12

12:                                               ; preds = %44, %11
  %13 = load i32, ptr %3, align 4, !tbaa !16
  %14 = load ptr, ptr %4, align 8, !tbaa !4
  %15 = getelementptr inbounds nuw %struct.cache_tree, ptr %14, i32 0, i32 2
  %16 = load i32, ptr %15, align 8, !tbaa !17
  %17 = icmp slt i32 %13, %16
  br i1 %17, label %18, label %47

18:                                               ; preds = %12
  %19 = load ptr, ptr %4, align 8, !tbaa !4
  %20 = getelementptr inbounds nuw %struct.cache_tree, ptr %19, i32 0, i32 4
  %21 = load ptr, ptr %20, align 8, !tbaa !18
  %22 = load i32, ptr %3, align 4, !tbaa !16
  %23 = sext i32 %22 to i64
  %24 = getelementptr inbounds ptr, ptr %21, i64 %23
  %25 = load ptr, ptr %24, align 8, !tbaa !19
  %26 = icmp ne ptr %25, null
  br i1 %26, label %27, label %43

27:                                               ; preds = %18
  %28 = load ptr, ptr %4, align 8, !tbaa !4
  %29 = getelementptr inbounds nuw %struct.cache_tree, ptr %28, i32 0, i32 4
  %30 = load ptr, ptr %29, align 8, !tbaa !18
  %31 = load i32, ptr %3, align 4, !tbaa !16
  %32 = sext i32 %31 to i64
  %33 = getelementptr inbounds ptr, ptr %30, i64 %32
  %34 = load ptr, ptr %33, align 8, !tbaa !19
  %35 = getelementptr inbounds nuw %struct.cache_tree_sub, ptr %34, i32 0, i32 0
  call void @cache_tree_free(ptr noundef %35)
  %36 = load ptr, ptr %4, align 8, !tbaa !4
  %37 = getelementptr inbounds nuw %struct.cache_tree, ptr %36, i32 0, i32 4
  %38 = load ptr, ptr %37, align 8, !tbaa !18
  %39 = load i32, ptr %3, align 4, !tbaa !16
  %40 = sext i32 %39 to i64
  %41 = getelementptr inbounds ptr, ptr %38, i64 %40
  %42 = load ptr, ptr %41, align 8, !tbaa !19
  call void @free(ptr noundef %42) #10
  br label %43

43:                                               ; preds = %27, %18
  br label %44

44:                                               ; preds = %43
  %45 = load i32, ptr %3, align 4, !tbaa !16
  %46 = add nsw i32 %45, 1
  store i32 %46, ptr %3, align 4, !tbaa !16
  br label %12, !llvm.loop !21

47:                                               ; preds = %12
  %48 = load ptr, ptr %4, align 8, !tbaa !4
  %49 = getelementptr inbounds nuw %struct.cache_tree, ptr %48, i32 0, i32 4
  %50 = load ptr, ptr %49, align 8, !tbaa !18
  call void @free(ptr noundef %50) #10
  %51 = load ptr, ptr %4, align 8, !tbaa !4
  call void @free(ptr noundef %51) #10
  %52 = load ptr, ptr %2, align 8, !tbaa !14
  store ptr null, ptr %52, align 8, !tbaa !4
  store i32 0, ptr %5, align 4
  br label %53

53:                                               ; preds = %47, %10
  call void @llvm.lifetime.end.p0(i64 8, ptr %4) #10
  call void @llvm.lifetime.end.p0(i64 4, ptr %3) #10
  %54 = load i32, ptr %5, align 4
  switch i32 %54, label %56 [
    i32 0, label %55
    i32 1, label %55
  ]

55:                                               ; preds = %53, %53
  ret void

56:                                               ; preds = %53
  unreachable
}