; Function Attrs: nounwind uwtable
define dso_local void @cache_tree_free(ptr noundef captures(none) %0) local_unnamed_addr #0 {
  %2 = load ptr, ptr %0, align 8, !tbaa !12
  %.not = icmp eq ptr %2, null
  br i1 %.not, label %22, label %.preheader

.preheader:                                       ; preds = %1
  %3 = getelementptr inbounds nuw i8, ptr %2, i64 40
  %4 = load i32, ptr %3, align 8, !tbaa !14
  %5 = icmp sgt i32 %4, 0
  br i1 %5, label %.lr.ph, label %._crit_edge

.lr.ph:                                           ; preds = %.preheader
  %6 = getelementptr inbounds nuw i8, ptr %2, i64 48
  br label %7

7:                                                ; preds = %.lr.ph, %16
  %8 = phi i32 [ %4, %.lr.ph ], [ %17, %16 ]
  %indvars.iv = phi i64 [ 0, %.lr.ph ], [ %indvars.iv.next, %16 ]
  %9 = load ptr, ptr %6, align 8, !tbaa !15
  %10 = getelementptr inbounds nuw ptr, ptr %9, i64 %indvars.iv
  %11 = load ptr, ptr %10, align 8, !tbaa !16
  %.not15 = icmp eq ptr %11, null
  br i1 %.not15, label %16, label %12

12:                                               ; preds = %7
  tail call void @cache_tree_free(ptr noundef nonnull %11)
  %13 = load ptr, ptr %6, align 8, !tbaa !15
  %14 = getelementptr inbounds nuw ptr, ptr %13, i64 %indvars.iv
  %15 = load ptr, ptr %14, align 8, !tbaa !16
  tail call void @free(ptr noundef %15) #18
  %.pre = load i32, ptr %3, align 8, !tbaa !14
  br label %16

16:                                               ; preds = %7, %12
  %17 = phi i32 [ %8, %7 ], [ %.pre, %12 ]
  %indvars.iv.next = add nuw nsw i64 %indvars.iv, 1
  %18 = sext i32 %17 to i64
  %19 = icmp slt i64 %indvars.iv.next, %18
  br i1 %19, label %7, label %._crit_edge, !llvm.loop !18

._crit_edge:                                      ; preds = %16, %.preheader
  %20 = getelementptr inbounds nuw i8, ptr %2, i64 48
  %21 = load ptr, ptr %20, align 8, !tbaa !15
  tail call void @free(ptr noundef %21) #18
  tail call void @free(ptr noundef nonnull %2) #18
  store ptr null, ptr %0, align 8, !tbaa !12
  br label %22

22:                                               ; preds = %1, %._crit_edge
  ret void
}